target datalayout = "e-m:e-p270:32:32-p271:32:32-p272:64:64-i64:64-i128:128-f80:128-n8:16:32:64-S128"
target triple = "x86_64-pc-linux-gnu"

%union.pthread_mutex_t = type { %struct.__pthread_mutex_s }
%struct.__pthread_mutex_s = type { i32, i32, i32, i32, i32, i16, i16, %struct.__pthread_internal_list }
%struct.__pthread_internal_list = type { ptr, ptr }
%struct.ClientRow = type { i32, i32, [24 x %struct.ClientSession] }
%struct.ClientSession = type { i16, i16, i32 }

@clisession_mutex = internal global %union.pthread_mutex_t zeroinitializer, align 8
@ClientCache = internal global [88 x %struct.ClientRow] zeroinitializer, align 16

; Function Attrs: nounwind uwtable
define ptr @AddSessionToClientCache(i32 noundef %0, i32 noundef %1, i32 noundef %2, ptr noundef %3, i16 noundef zeroext %4, ptr noundef %5, i16 noundef zeroext %6) #0 {
  %8 = alloca i32, align 4
  %9 = alloca i32, align 4
  %10 = alloca i32, align 4
  %11 = alloca ptr, align 8
  %12 = alloca i16, align 2
  %13 = alloca ptr, align 8
  %14 = alloca i16, align 2
  %15 = alloca i32, align 4
  %16 = alloca i32, align 4
  %17 = alloca i32, align 4
  %18 = alloca ptr, align 8
  %19 = alloca i32, align 4
  store i32 %0, ptr %8, align 4, !tbaa !7
  store i32 %1, ptr %9, align 4, !tbaa !7
  store i32 %2, ptr %10, align 4, !tbaa !7
  store ptr %3, ptr %11, align 8, !tbaa !21
  store i16 %4, ptr %12, align 2, !tbaa !94
  store ptr %5, ptr %13, align 8, !tbaa !21
  store i16 %6, ptr %14, align 2, !tbaa !94
  call void @llvm.lifetime.start.p0(i64 4, ptr %15) #9
  store i32 -1, ptr %15, align 4, !tbaa !7
  call void @llvm.lifetime.start.p0(i64 4, ptr %16) #9
  store i32 0, ptr %16, align 4, !tbaa !7
  call void @llvm.lifetime.start.p0(i64 4, ptr %17) #9
  store i32 0, ptr %17, align 4, !tbaa !7
  call void @llvm.lifetime.start.p0(i64 8, ptr %18) #9
  store ptr null, ptr %18, align 8, !tbaa !107
  %20 = load i32, ptr %8, align 4, !tbaa !7
  %21 = icmp eq i32 %20, 1
  br i1 %21, label %22, label %162

22:                                               ; preds = %7
  %23 = load i32, ptr %9, align 4, !tbaa !7
  %24 = icmp ne i32 %23, -1
  br i1 %24, label %25, label %162

25:                                               ; preds = %22
  %26 = load i16, ptr %12, align 2, !tbaa !94
  %27 = zext i16 %26 to i32
  %28 = icmp ne i32 %27, 0
  br i1 %28, label %32, label %29

29:                                               ; preds = %25
  %30 = load ptr, ptr %11, align 8, !tbaa !21
  %31 = icmp ne ptr %30, null
  br i1 %31, label %32, label %162

32:                                               ; preds = %29, %25
  br label %33

33:                                               ; preds = %32
  br label %34

34:                                               ; preds = %33
  br label %35

35:                                               ; preds = %34
  %36 = load i16, ptr %12, align 2, !tbaa !94
  %37 = icmp ne i16 %36, 0
  br i1 %37, label %38, label %44

38:                                               ; preds = %35
  %39 = load ptr, ptr %11, align 8, !tbaa !21
  %40 = load i16, ptr %12, align 2, !tbaa !94
  %41 = zext i16 %40 to i32
  %42 = call i32 @HashObject(ptr noundef %39, i32 noundef %41, ptr noundef %15)
  %43 = urem i32 %42, 88
  store i32 %43, ptr %16, align 4, !tbaa !7
  br label %53

44:                                               ; preds = %35
  %45 = load ptr, ptr %11, align 8, !tbaa !21
  %46 = icmp ne ptr %45, null
  br i1 %46, label %47, label %51

47:                                               ; preds = %44
  %48 = load ptr, ptr %13, align 8, !tbaa !21
  %49 = call i32 @HashObject(ptr noundef %48, i32 noundef 32, ptr noundef %15)
  %50 = urem i32 %49, 88
  store i32 %50, ptr %16, align 4, !tbaa !7
  br label %52

51:                                               ; preds = %44
  store i32 -1, ptr %15, align 4, !tbaa !7
  br label %52

52:                                               ; preds = %51, %47
  br label %53

53:                                               ; preds = %52, %38
  %54 = load i32, ptr %15, align 4, !tbaa !7
  %55 = icmp eq i32 %54, 0
  br i1 %55, label %56, label %157

56:                                               ; preds = %53
  %57 = call i32 @wc_LockMutex(ptr noundef @clisession_mutex)
  %58 = icmp eq i32 %57, 0
  br i1 %58, label %59, label %157

59:                                               ; preds = %56
  %60 = load i32, ptr %16, align 4, !tbaa !7
  %61 = zext i32 %60 to i64
  %62 = getelementptr inbounds nuw [88 x %struct.ClientRow], ptr @ClientCache, i64 0, i64 %61
  %63 = getelementptr inbounds nuw %struct.ClientRow, ptr %62, i32 0, i32 0
  %64 = load i32, ptr %63, align 8, !tbaa !117
  store i32 %64, ptr %17, align 4, !tbaa !7
  %65 = load i32, ptr %17, align 4, !tbaa !7
  %66 = icmp ult i32 %65, 24
  br i1 %66, label %67, label %107

67:                                               ; preds = %59
  %68 = load i32, ptr %9, align 4, !tbaa !7
  %69 = trunc i32 %68 to i16
  %70 = load i32, ptr %16, align 4, !tbaa !7
  %71 = zext i32 %70 to i64
  %72 = getelementptr inbounds nuw [88 x %struct.ClientRow], ptr @ClientCache, i64 0, i64 %71
  %73 = getelementptr inbounds nuw %struct.ClientRow, ptr %72, i32 0, i32 2
  %74 = load i32, ptr %17, align 4, !tbaa !7
  %75 = zext i32 %74 to i64
  %76 = getelementptr inbounds nuw [24 x %struct.ClientSession], ptr %73, i64 0, i64 %75
  %77 = getelementptr inbounds nuw %struct.ClientSession, ptr %76, i32 0, i32 0
  store i16 %69, ptr %77, align 8, !tbaa !118
  %78 = load i32, ptr %10, align 4, !tbaa !7
  %79 = trunc i32 %78 to i16
  %80 = load i32, ptr %16, align 4, !tbaa !7
  %81 = zext i32 %80 to i64
  %82 = getelementptr inbounds nuw [88 x %struct.ClientRow], ptr @ClientCache, i64 0, i64 %81
  %83 = getelementptr inbounds nuw %struct.ClientRow, ptr %82, i32 0, i32 2
  %84 = load i32, ptr %17, align 4, !tbaa !7
  %85 = zext i32 %84 to i64
  %86 = getelementptr inbounds nuw [24 x %struct.ClientSession], ptr %83, i64 0, i64 %85
  %87 = getelementptr inbounds nuw %struct.ClientSession, ptr %86, i32 0, i32 1
  store i16 %79, ptr %87, align 2, !tbaa !120
  %88 = load ptr, ptr %13, align 8, !tbaa !21
  %89 = icmp ne ptr %88, null
  br i1 %89, label %90, label %106

90:                                               ; preds = %67
  call void @llvm.lifetime.start.p0(i64 4, ptr %19) #9
  %91 = load ptr, ptr %13, align 8, !tbaa !21
  %92 = call i32 @HashObject(ptr noundef %91, i32 noundef 32, ptr noundef %15)
  store i32 %92, ptr %19, align 4, !tbaa !7
  %93 = load i32, ptr %15, align 4, !tbaa !7
  %94 = icmp eq i32 %93, 0
  br i1 %94, label %95, label %105

95:                                               ; preds = %90
  %96 = load i32, ptr %19, align 4, !tbaa !7
  %97 = load i32, ptr %16, align 4, !tbaa !7
  %98 = zext i32 %97 to i64
  %99 = getelementptr inbounds nuw [88 x %struct.ClientRow], ptr @ClientCache, i64 0, i64 %98
  %100 = getelementptr inbounds nuw %struct.ClientRow, ptr %99, i32 0, i32 2
  %101 = load i32, ptr %17, align 4, !tbaa !7
  %102 = zext i32 %101 to i64
  %103 = getelementptr inbounds nuw [24 x %struct.ClientSession], ptr %100, i64 0, i64 %102
  %104 = getelementptr inbounds nuw %struct.ClientSession, ptr %103, i32 0, i32 2
  store i32 %96, ptr %104, align 4, !tbaa !130
  br label %105

105:                                              ; preds = %95, %90
  call void @llvm.lifetime.end.p0(i64 4, ptr %19) #9
  br label %106

106:                                              ; preds = %105, %67
  br label %115

107:                                              ; preds = %59
  store i32 -1, ptr %15, align 4, !tbaa !7
  %108 = load i32, ptr %16, align 4, !tbaa !7
  %109 = zext i32 %108 to i64
  %110 = getelementptr inbounds nuw [88 x %struct.ClientRow], ptr @ClientCache, i64 0, i64 %109
  %111 = getelementptr inbounds nuw %struct.ClientRow, ptr %110, i32 0, i32 0
  store i32 0, ptr %111, align 8, !tbaa !117
  br label %112

112:                                              ; preds = %107
  br label %113

113:                                              ; preds = %112
  br label %114

114:                                              ; preds = %113
  br label %115

115:                                              ; preds = %114, %106
  %116 = load i32, ptr %15, align 4, !tbaa !7
  %117 = icmp eq i32 %116, 0
  br i1 %117, label %118, label %155

118:                                              ; preds = %115
  br label %119

119:                                              ; preds = %118
  br label %120

120:                                              ; preds = %119
  br label %121

121:                                              ; preds = %120
  %122 = load i32, ptr %16, align 4, !tbaa !7
  %123 = zext i32 %122 to i64
  %124 = getelementptr inbounds nuw [88 x %struct.ClientRow], ptr @ClientCache, i64 0, i64 %123
  %125 = getelementptr inbounds nuw %struct.ClientRow, ptr %124, i32 0, i32 2
  %126 = load i32, ptr %17, align 4, !tbaa !7
  %127 = zext i32 %126 to i64
  %128 = getelementptr inbounds nuw [24 x %struct.ClientSession], ptr %125, i64 0, i64 %127
  store ptr %128, ptr %18, align 8, !tbaa !107
  %129 = load i32, ptr %16, align 4, !tbaa !7
  %130 = zext i32 %129 to i64
  %131 = getelementptr inbounds nuw [88 x %struct.ClientRow], ptr @ClientCache, i64 0, i64 %130
  %132 = getelementptr inbounds nuw %struct.ClientRow, ptr %131, i32 0, i32 1
  %133 = load i32, ptr %132, align 4, !tbaa !115
  %134 = icmp slt i32 %133, 24
  br i1 %134, label %135, label %142

135:                                              ; preds = %121
  %136 = load i32, ptr %16, align 4, !tbaa !7
  %137 = zext i32 %136 to i64
  %138 = getelementptr inbounds nuw [88 x %struct.ClientRow], ptr @ClientCache, i64 0, i64 %137
  %139 = getelementptr inbounds nuw %struct.ClientRow, ptr %138, i32 0, i32 1
  %140 = load i32, ptr %139, align 4, !tbaa !115
  %141 = add nsw i32 %140, 1
  store i32 %141, ptr %139, align 4, !tbaa !115
  br label %142

142:                                              ; preds = %135, %121
  %143 = load i32, ptr %16, align 4, !tbaa !7
  %144 = zext i32 %143 to i64
  %145 = getelementptr inbounds nuw [88 x %struct.ClientRow], ptr @ClientCache, i64 0, i64 %144
  %146 = getelementptr inbounds nuw %struct.ClientRow, ptr %145, i32 0, i32 0
  %147 = load i32, ptr %146, align 8, !tbaa !117
  %148 = add nsw i32 %147, 1
  store i32 %148, ptr %146, align 8, !tbaa !117
  %149 = load i32, ptr %16, align 4, !tbaa !7
  %150 = zext i32 %149 to i64
  %151 = getelementptr inbounds nuw [88 x %struct.ClientRow], ptr @ClientCache, i64 0, i64 %150
  %152 = getelementptr inbounds nuw %struct.ClientRow, ptr %151, i32 0, i32 0
  %153 = load i32, ptr %152, align 8, !tbaa !117
  %154 = srem i32 %153, 24
  store i32 %154, ptr %152, align 8, !tbaa !117
  br label %155

155:                                              ; preds = %142, %115
  %156 = call i32 @wc_UnLockMutex(ptr noundef @clisession_mutex)
  br label %161

157:                                              ; preds = %56, %53
  br label %158

158:                                              ; preds = %157
  br label %159

159:                                              ; preds = %158
  br label %160

160:                                              ; preds = %159
  br label %161

161:                                              ; preds = %160, %155
  br label %166

162:                                              ; preds = %29, %22, %7
  br label %163

163:                                              ; preds = %162
  br label %164

164:                                              ; preds = %163
  br label %165

165:                                              ; preds = %164
  br label %166

166:                                              ; preds = %165, %161
  %167 = load ptr, ptr %18, align 8, !tbaa !107
  call void @llvm.lifetime.end.p0(i64 8, ptr %18) #9
  call void @llvm.lifetime.end.p0(i64 4, ptr %17) #9
  call void @llvm.lifetime.end.p0(i64 4, ptr %16) #9
  call void @llvm.lifetime.end.p0(i64 4, ptr %15) #9
  ret ptr %167
}