; Function Attrs: nounwind uwtable
define noundef ptr @AddSessionToClientCache(i32 noundef %0, i32 noundef %1, i32 noundef %2, ptr noundef %3, i16 noundef zeroext %4, ptr noundef %5, i16 zeroext %6) local_unnamed_addr #0 {
  %8 = alloca [64 x i8], align 16
  %9 = alloca [64 x i8], align 16
  %10 = alloca i32, align 4
  call void @llvm.lifetime.start.p0(i64 4, ptr nonnull %10) #22
  %11 = icmp eq i32 %0, 1
  %12 = icmp ne i32 %1, -1
  %or.cond = and i1 %11, %12
  br i1 %or.cond, label %13, label %.thread

13:                                               ; preds = %7
  %14 = zext i16 %4 to i32
  %15 = icmp ne i16 %4, 0
  %16 = icmp ne ptr %3, null
  %or.cond3 = or i1 %16, %15
  br i1 %or.cond3, label %17, label %.thread

17:                                               ; preds = %13
  %.not = icmp eq i16 %4, 0
  br i1 %.not, label %41, label %18

18:                                               ; preds = %17
  call void @llvm.lifetime.start.p0(i64 64, ptr nonnull %9) #22
  %19 = call i32 @wc_Md5Hash(ptr noundef %3, i32 noundef %14, ptr noundef nonnull %9) #22
  %20 = icmp eq i32 %19, 0
  br i1 %20, label %21, label %HashObject.exit

21:                                               ; preds = %18
  %22 = load i8, ptr %9, align 16, !tbaa !43
  %23 = zext i8 %22 to i32
  %24 = shl nuw i32 %23, 24
  %25 = getelementptr inbounds nuw i8, ptr %9, i64 1
  %26 = load i8, ptr %25, align 1, !tbaa !43
  %27 = zext i8 %26 to i32
  %28 = shl nuw nsw i32 %27, 16
  %29 = or disjoint i32 %28, %24
  %30 = getelementptr inbounds nuw i8, ptr %9, i64 2
  %31 = load i8, ptr %30, align 2, !tbaa !43
  %32 = zext i8 %31 to i32
  %33 = shl nuw nsw i32 %32, 8
  %34 = or disjoint i32 %29, %33
  %35 = getelementptr inbounds nuw i8, ptr %9, i64 3
  %36 = load i8, ptr %35, align 1, !tbaa !43
  %37 = zext i8 %36 to i32
  %38 = or disjoint i32 %34, %37
  %39 = urem i32 %38, 88
  br label %HashObject.exit

HashObject.exit:                                  ; preds = %18, %21
  %40 = phi i32 [ %39, %21 ], [ 0, %18 ]
  call void @llvm.lifetime.end.p0(i64 64, ptr nonnull %9) #22
  br label %65

41:                                               ; preds = %17
  br i1 %16, label %42, label %.thread

42:                                               ; preds = %41
  call void @llvm.lifetime.start.p0(i64 64, ptr nonnull %8) #22
  %43 = call i32 @wc_Md5Hash(ptr noundef %5, i32 noundef 32, ptr noundef nonnull %8) #22
  %44 = icmp eq i32 %43, 0
  br i1 %44, label %45, label %HashObject.exit38

45:                                               ; preds = %42
  %46 = load i8, ptr %8, align 16, !tbaa !43
  %47 = zext i8 %46 to i32
  %48 = shl nuw i32 %47, 24
  %49 = getelementptr inbounds nuw i8, ptr %8, i64 1
  %50 = load i8, ptr %49, align 1, !tbaa !43
  %51 = zext i8 %50 to i32
  %52 = shl nuw nsw i32 %51, 16
  %53 = or disjoint i32 %52, %48
  %54 = getelementptr inbounds nuw i8, ptr %8, i64 2
  %55 = load i8, ptr %54, align 2, !tbaa !43
  %56 = zext i8 %55 to i32
  %57 = shl nuw nsw i32 %56, 8
  %58 = or disjoint i32 %53, %57
  %59 = getelementptr inbounds nuw i8, ptr %8, i64 3
  %60 = load i8, ptr %59, align 1, !tbaa !43
  %61 = zext i8 %60 to i32
  %62 = or disjoint i32 %58, %61
  %63 = urem i32 %62, 88
  br label %HashObject.exit38

HashObject.exit38:                                ; preds = %42, %45
  %64 = phi i32 [ %63, %45 ], [ 0, %42 ]
  call void @llvm.lifetime.end.p0(i64 64, ptr nonnull %8) #22
  br label %65

65:                                               ; preds = %HashObject.exit38, %HashObject.exit
  %.pr41 = phi i32 [ %43, %HashObject.exit38 ], [ %19, %HashObject.exit ]
  %.0.ph = phi i32 [ %64, %HashObject.exit38 ], [ %40, %HashObject.exit ]
  %66 = icmp eq i32 %.pr41, 0
  br i1 %66, label %67, label %.thread

67:                                               ; preds = %65
  %68 = call i32 @wc_LockMutex(ptr noundef nonnull @clisession_mutex) #22
  %69 = icmp eq i32 %68, 0
  br i1 %69, label %70, label %.thread

70:                                               ; preds = %67
  %71 = zext nneg i32 %.0.ph to i64
  %72 = getelementptr inbounds nuw [88 x %struct.ClientRow], ptr @ClientCache, i64 0, i64 %71
  %73 = load i32, ptr %72, align 8, !tbaa !99
  %74 = icmp ult i32 %73, 24
  br i1 %74, label %75, label %.thread42.sink.split

75:                                               ; preds = %70
  %76 = trunc i32 %1 to i16
  %77 = getelementptr inbounds nuw i8, ptr %72, i64 8
  %78 = zext nneg i32 %73 to i64
  %79 = getelementptr inbounds nuw [24 x %struct.ClientSession], ptr %77, i64 0, i64 %78
  store i16 %76, ptr %79, align 8, !tbaa !100
  %80 = trunc i32 %2 to i16
  %81 = getelementptr inbounds nuw i8, ptr %79, i64 2
  store i16 %80, ptr %81, align 2, !tbaa !102
  %.not37 = icmp eq ptr %5, null
  br i1 %.not37, label %87, label %82

82:                                               ; preds = %75
  %83 = call fastcc i32 @HashObject(ptr noundef nonnull %5, i32 noundef 32, ptr noundef %10)
  %84 = load i32, ptr %10, align 4, !tbaa !3
  %85 = icmp eq i32 %84, 0
  br i1 %85, label %.thread43, label %.thread42

.thread43:                                        ; preds = %82
  %86 = getelementptr inbounds nuw i8, ptr %79, i64 4
  store i32 %83, ptr %86, align 4, !tbaa !111
  br label %87

87:                                               ; preds = %75, %.thread43
  %88 = getelementptr inbounds nuw i8, ptr %72, i64 4
  %89 = load i32, ptr %88, align 4, !tbaa !97
  %90 = icmp slt i32 %89, 24
  br i1 %90, label %91, label %93

91:                                               ; preds = %87
  %92 = add nsw i32 %89, 1
  store i32 %92, ptr %88, align 4, !tbaa !97
  br label %93

93:                                               ; preds = %91, %87
  %94 = load i32, ptr %72, align 8, !tbaa !99
  %95 = add nsw i32 %94, 1
  %96 = srem i32 %95, 24
  br label %.thread42.sink.split

.thread42.sink.split:                             ; preds = %70, %93
  %.sink = phi i32 [ %96, %93 ], [ 0, %70 ]
  %.032.ph = phi ptr [ %79, %93 ], [ null, %70 ]
  store i32 %.sink, ptr %72, align 8, !tbaa !99
  br label %.thread42

.thread42:                                        ; preds = %.thread42.sink.split, %82
  %.032 = phi ptr [ null, %82 ], [ %.032.ph, %.thread42.sink.split ]
  %97 = call i32 @wc_UnLockMutex(ptr noundef nonnull @clisession_mutex) #22
  br label %.thread

.thread:                                          ; preds = %41, %13, %7, %.thread42, %65, %67
  %.1 = phi ptr [ %.032, %.thread42 ], [ null, %67 ], [ null, %65 ], [ null, %13 ], [ null, %7 ], [ null, %41 ]
  call void @llvm.lifetime.end.p0(i64 4, ptr nonnull %10) #22
  ret ptr %.1
}